; Function Attrs: mustprogress nofree norecurse nosync nounwind willreturn memory(read, inaccessiblemem: none) uwtable
define noundef i32 @_ZNK10OpenSubdiv6v3_6_03Far10PatchTable21GetNumControlVerticesEi(ptr nocapture noundef nonnull readonly align 8 dereferenceable(273) %0, i32 noundef %1) local_unnamed_addr #6 align 2 {
  %3 = getelementptr inbounds nuw i8, ptr %0, i64 8
  %4 = sext i32 %1 to i64
  %5 = load ptr, ptr %3, align 8
  %6 = getelementptr inbounds %"struct.OpenSubdiv::v3_6_0::Far::PatchTable::PatchArray", ptr %5, i64 %4
  %7 = getelementptr inbounds nuw i8, ptr %6, i64 4
  %8 = load i32, ptr %7, align 4
  %9 = load i32, ptr %6, align 4
  %switch.tableidx = add i32 %9, -1
  %10 = icmp ult i32 %switch.tableidx, 10
  br i1 %10, label %switch.lookup, label %_ZN10OpenSubdiv6v3_6_03Far12getPatchSizeENS1_15PatchDescriptorE.exit

switch.lookup:                                    ; preds = %2
  %11 = zext nneg i32 %switch.tableidx to i64
  %switch.gep = getelementptr inbounds [10 x i32], ptr @switch.table._ZNK10OpenSubdiv6v3_6_03Far10PatchTable18GetPatchFVarValuesEiii.5, i64 0, i64 %11
  %switch.load = load i32, ptr %switch.gep, align 4
  br label %_ZN10OpenSubdiv6v3_6_03Far12getPatchSizeENS1_15PatchDescriptorE.exit

_ZN10OpenSubdiv6v3_6_03Far12getPatchSizeENS1_15PatchDescriptorE.exit: ; preds = %2, %switch.lookup
  %.0.i.i.i = phi i32 [ %switch.load, %switch.lookup ], [ -1, %2 ]
  %12 = mul nsw i32 %.0.i.i.i, %8
  ret i32 %12
}